target datalayout = "e-m:e-p270:32:32-p271:32:32-p272:64:64-i64:64-i128:128-f80:128-n8:16:32:64-S128"
target triple = "x86_64-pc-linux-gnu"

@.str.84 = private unnamed_addr constant [34 x i8] c"failed to initialize sched plugin\00", align 1

; Function Attrs: nounwind uwtable
define dso_local i32 @controller_init_scheduling(i1 noundef zeroext %0) #0 {
  %2 = alloca i32, align 4
  %3 = alloca i8, align 1
  %4 = alloca i32, align 4
  %5 = alloca i32, align 4
  %6 = zext i1 %0 to i8
  store i8 %6, ptr %3, align 1
  call void @llvm.lifetime.start.p0(i64 4, ptr %4) #11
  %7 = call i32 @sched_g_init()
  store i32 %7, ptr %4, align 4
  %8 = load i32, ptr %4, align 4
  %9 = icmp ne i32 %8, 0
  br i1 %9, label %10, label %13

10:                                               ; preds = %1
  %11 = call i32 (ptr, ...) @error(ptr noundef @.str.84)
  %12 = load i32, ptr %4, align 4
  store i32 %12, ptr %2, align 4
  store i32 1, ptr %5, align 4
  br label %19

13:                                               ; preds = %1
  call void @main_sched_init()
  %14 = load i8, ptr %3, align 1, !range !8, !noundef !9
  %15 = trunc i8 %14 to i1
  br i1 %15, label %16, label %17

16:                                               ; preds = %13
  call void @gs_init()
  br label %17

17:                                               ; preds = %16, %13
  %18 = load i32, ptr %4, align 4
  store i32 %18, ptr %2, align 4
  store i32 1, ptr %5, align 4
  br label %19

19:                                               ; preds = %17, %10
  call void @llvm.lifetime.end.p0(i64 4, ptr %4) #11
  %20 = load i32, ptr %2, align 4
  ret i32 %20
}