; Function Attrs: nounwind uwtable
define dso_local i32 @controller_init_scheduling(i1 noundef zeroext %0) local_unnamed_addr #6 {
  %2 = tail call i32 @sched_g_init() #19
  %.not = icmp eq i32 %2, 0
  br i1 %.not, label %5, label %3

3:                                                ; preds = %1
  %4 = tail call i32 (ptr, ...) @error(ptr noundef nonnull @.str.84) #19
  br label %7

5:                                                ; preds = %1
  tail call void @main_sched_init() #19
  br i1 %0, label %6, label %7

6:                                                ; preds = %5
  tail call void @gs_init() #19
  br label %7

7:                                                ; preds = %5, %6, %3
  ret i32 %2
}